target datalayout = "e-m:e-p270:32:32-p271:32:32-p272:64:64-i64:64-i128:128-f80:128-n8:16:32:64-S128"
target triple = "x86_64-pc-linux-gnu"

%struct.SDL_VideoDevice = type { ptr, ptr, ptr, ptr, ptr, ptr, ptr, ptr, ptr, ptr, ptr, ptr, ptr, ptr, ptr, ptr, ptr, ptr, ptr, ptr, ptr, ptr, ptr, ptr, ptr, ptr, ptr, ptr, ptr, ptr, ptr, ptr, ptr, ptr, ptr, ptr, ptr, ptr, ptr, ptr, ptr, ptr, ptr, ptr, ptr, ptr, ptr, ptr, ptr, ptr, ptr, ptr, ptr, ptr, ptr, ptr, ptr, ptr, ptr, ptr, ptr, ptr, ptr, ptr, ptr, ptr, ptr, ptr, ptr, ptr, ptr, ptr, ptr, ptr, ptr, ptr, ptr, ptr, ptr, ptr, ptr, ptr, ptr, ptr, ptr, ptr, ptr, ptr, ptr, ptr, ptr, ptr, ptr, ptr, ptr, ptr, ptr, i64, i8, i8, i8, ptr, i32, ptr, %struct.SDL_Rect, ptr, ptr, i32, ptr, ptr, ptr, ptr, i64, ptr, i8, i32, i32, %struct.anon, ptr, ptr, ptr, ptr, ptr, ptr, %struct.SDL_AtomicInt, %struct.SDL_AtomicInt, i8, %struct.anon.0, ptr, ptr, ptr, ptr, ptr }
%struct.SDL_Rect = type { i32, i32, i32, i32 }
%struct.anon = type { i32, i32, i32, i32, i32, i32, i32, i32, i32, i32, i32, i32, i32, i32, i32, i32, i32, i32, i32, i32, i32, i32, i32, i32, i32, i32, i32, i32, i32, [256 x i8], ptr }
%struct.SDL_AtomicInt = type { i32 }
%struct.anon.0 = type { ptr, ptr, i32, [256 x i8], ptr }
%struct.SDL_Point = type { i32, i32 }
%struct.anon.4 = type { ptr, ptr, i32, i32, i32, i32, ptr, i64, i64, i64, i32, ptr, i32, i32, i32, i32, i32, ptr, i32, i32, ptr, ptr, i32, i64, i64, ptr, ptr, ptr, ptr, i32, ptr, ptr, ptr, i32, i32, ptr, i64, i64, i32, i32, ptr, ptr, i32, ptr }
%struct.Screen = type { ptr, ptr, i64, i32, i32, i32, i32, i32, ptr, i32, ptr, ptr, i64, i64, i64, i32, i32, i32, i32, i64 }
%struct.SDL_VideoData = type { ptr, ptr, i32, ptr, i64, i32, ptr, i32, i64, i64, %struct.X11_ClipboardData, %struct.X11_ClipboardData, ptr, i64, %struct.X11_SettingsData, i8, %struct.anon.1, [256 x i32], i8, i8, i8, i64, i8, %struct.SDL_Point, i32, ptr, i32, i8, i32, %struct.anon.2, i8, i64, ptr, ptr, i8, i8, i8 }
%struct.X11_ClipboardData = type { ptr, ptr, ptr, i64, i32 }
%struct.X11_SettingsData = type { ptr }
%struct.anon.1 = type { i64, i64, i64, i64, i64, i64, i64, i64, i64, i64, i64, i64, i64, i64, i64, i64, i64, i64, i64, i64, i64, i64, i64, i64, i64, i64, i64, i64, i64, i64, i64, i64, i64, i64, i64, i64, i64, i64, i64, i64, i64, i64, i64, i64, i64, i64, i64, i64, i64, i64, i64, i64, i64 }
%struct.anon.2 = type { ptr, i32, i32, i32, i16, i32, i32 }
%struct.XWindowAttributes = type { i32, i32, i32, i32, i32, i32, ptr, i64, i32, i32, i32, i32, i64, i64, i32, i64, i32, i32, i64, i64, i64, i32, ptr }
%struct.SDL_DisplayData = type { i32, ptr, i32, i32, i32, i32, i64, i8, i64, [16 x i8] }

@X11_XQueryPointer = external global ptr, align 8
@X11_XGetWindowAttributes = external global ptr, align 8

; Function Attrs: nounwind uwtable
define internal ptr @GetDisplay() #0 {
  %1 = call ptr @SDL_GetVideoDevice()
  %2 = getelementptr inbounds nuw %struct.SDL_VideoDevice, ptr %1, i32 0, i32 128
  %3 = load ptr, ptr %2, align 8
  %4 = getelementptr inbounds nuw %struct.SDL_VideoData, ptr %3, i32 0, i32 0
  %5 = load ptr, ptr %4, align 8
  ret ptr %5
}

; Function Attrs: nounwind uwtable
define internal i32 @X11_GetGlobalMouseState(ptr noundef %0, ptr noundef %1) #0 {
  %3 = alloca ptr, align 8
  %4 = alloca ptr, align 8
  %5 = alloca ptr, align 8
  %6 = alloca ptr, align 8
  %7 = alloca ptr, align 8
  %8 = alloca i32, align 4
  %9 = alloca ptr, align 8
  %10 = alloca i64, align 8
  %11 = alloca i64, align 8
  %12 = alloca i32, align 4
  %13 = alloca i32, align 4
  %14 = alloca i32, align 4
  %15 = alloca i32, align 4
  %16 = alloca i32, align 4
  %17 = alloca %struct.XWindowAttributes, align 8
  %18 = alloca i32, align 4
  %19 = alloca i32, align 4
  store ptr %0, ptr %3, align 8
  store ptr %1, ptr %4, align 8
  call void @llvm.lifetime.start.p0(i64 8, ptr %5) #6
  %20 = call ptr @SDL_GetVideoDevice()
  %21 = getelementptr inbounds nuw %struct.SDL_VideoDevice, ptr %20, i32 0, i32 128
  %22 = load ptr, ptr %21, align 8
  store ptr %22, ptr %5, align 8
  call void @llvm.lifetime.start.p0(i64 8, ptr %6) #6
  call void @llvm.lifetime.start.p0(i64 8, ptr %7) #6
  %23 = call ptr @GetDisplay()
  store ptr %23, ptr %7, align 8
  call void @llvm.lifetime.start.p0(i64 4, ptr %8) #6
  %24 = call zeroext i1 @X11_Xinput2IsInitialized()
  br i1 %24, label %28, label %25

25:                                               ; preds = %2
  %26 = load ptr, ptr %5, align 8
  %27 = getelementptr inbounds nuw %struct.SDL_VideoData, ptr %26, i32 0, i32 22
  store i8 1, ptr %27, align 8
  br label %28

28:                                               ; preds = %25, %2
  %29 = load ptr, ptr %5, align 8
  %30 = getelementptr inbounds nuw %struct.SDL_VideoData, ptr %29, i32 0, i32 22
  %31 = load i8, ptr %30, align 8, !range !6, !noundef !7
  %32 = trunc i8 %31 to i1
  br i1 %32, label %33, label %129

33:                                               ; preds = %28
  %34 = call ptr @SDL_GetDisplays_REAL(ptr noundef null)
  store ptr %34, ptr %6, align 8
  %35 = load ptr, ptr %6, align 8
  %36 = icmp ne ptr %35, null
  br i1 %36, label %37, label %128

37:                                               ; preds = %33
  store i32 0, ptr %8, align 4
  br label %38

38:                                               ; preds = %123, %37
  %39 = load ptr, ptr %6, align 8
  %40 = load i32, ptr %8, align 4
  %41 = sext i32 %40 to i64
  %42 = getelementptr inbounds i32, ptr %39, i64 %41
  %43 = load i32, ptr %42, align 4
  %44 = icmp ne i32 %43, 0
  br i1 %44, label %45, label %126

45:                                               ; preds = %38
  call void @llvm.lifetime.start.p0(i64 8, ptr %9) #6
  %46 = load ptr, ptr %6, align 8
  %47 = load i32, ptr %8, align 4
  %48 = sext i32 %47 to i64
  %49 = getelementptr inbounds i32, ptr %46, i64 %48
  %50 = load i32, ptr %49, align 4
  %51 = call ptr @SDL_GetDisplayDriverData(i32 noundef %50)
  store ptr %51, ptr %9, align 8
  %52 = load ptr, ptr %9, align 8
  %53 = icmp ne ptr %52, null
  br i1 %53, label %54, label %119

54:                                               ; preds = %45
  call void @llvm.lifetime.start.p0(i64 8, ptr %10) #6
  call void @llvm.lifetime.start.p0(i64 8, ptr %11) #6
  call void @llvm.lifetime.start.p0(i64 4, ptr %12) #6
  call void @llvm.lifetime.start.p0(i64 4, ptr %13) #6
  call void @llvm.lifetime.start.p0(i64 4, ptr %14) #6
  call void @llvm.lifetime.start.p0(i64 4, ptr %15) #6
  call void @llvm.lifetime.start.p0(i64 4, ptr %16) #6
  %55 = load ptr, ptr @X11_XQueryPointer, align 8
  %56 = load ptr, ptr %7, align 8
  %57 = load ptr, ptr %7, align 8
  %58 = getelementptr inbounds nuw %struct.anon.4, ptr %57, i32 0, i32 35
  %59 = load ptr, ptr %58, align 8
  %60 = load ptr, ptr %9, align 8
  %61 = getelementptr inbounds nuw %struct.SDL_DisplayData, ptr %60, i32 0, i32 0
  %62 = load i32, ptr %61, align 8
  %63 = sext i32 %62 to i64
  %64 = getelementptr inbounds %struct.Screen, ptr %59, i64 %63
  %65 = getelementptr inbounds nuw %struct.Screen, ptr %64, i32 0, i32 2
  %66 = load i64, ptr %65, align 8
  %67 = call i32 %55(ptr noundef %56, i64 noundef %66, ptr noundef %10, ptr noundef %11, ptr noundef %12, ptr noundef %13, ptr noundef %14, ptr noundef %15, ptr noundef %16)
  %68 = icmp ne i32 %67, 0
  br i1 %68, label %69, label %115

69:                                               ; preds = %54
  call void @llvm.lifetime.start.p0(i64 136, ptr %17) #6
  call void @llvm.lifetime.start.p0(i64 4, ptr %18) #6
  store i32 0, ptr %18, align 4
  %70 = load i32, ptr %16, align 4
  %71 = and i32 %70, 256
  %72 = icmp ne i32 %71, 0
  %73 = select i1 %72, i32 1, i32 0
  %74 = load i32, ptr %18, align 4
  %75 = or i32 %74, %73
  store i32 %75, ptr %18, align 4
  %76 = load i32, ptr %16, align 4
  %77 = and i32 %76, 512
  %78 = icmp ne i32 %77, 0
  %79 = select i1 %78, i32 2, i32 0
  %80 = load i32, ptr %18, align 4
  %81 = or i32 %80, %79
  store i32 %81, ptr %18, align 4
  %82 = load i32, ptr %16, align 4
  %83 = and i32 %82, 1024
  %84 = icmp ne i32 %83, 0
  %85 = select i1 %84, i32 4, i32 0
  %86 = load i32, ptr %18, align 4
  %87 = or i32 %86, %85
  store i32 %87, ptr %18, align 4
  %88 = call i32 @SDL_GetMouseState_REAL(ptr noundef null, ptr noundef null)
  %89 = and i32 %88, 24
  %90 = load i32, ptr %18, align 4
  %91 = or i32 %90, %89
  store i32 %91, ptr %18, align 4
  %92 = load ptr, ptr @X11_XGetWindowAttributes, align 8
  %93 = load ptr, ptr %7, align 8
  %94 = load i64, ptr %10, align 8
  %95 = call i32 %92(ptr noundef %93, i64 noundef %94, ptr noundef %17)
  %96 = getelementptr inbounds nuw %struct.XWindowAttributes, ptr %17, i32 0, i32 0
  %97 = load i32, ptr %96, align 8
  %98 = load i32, ptr %12, align 4
  %99 = add nsw i32 %97, %98
  %100 = load ptr, ptr %5, align 8
  %101 = getelementptr inbounds nuw %struct.SDL_VideoData, ptr %100, i32 0, i32 23
  %102 = getelementptr inbounds nuw %struct.SDL_Point, ptr %101, i32 0, i32 0
  store i32 %99, ptr %102, align 4
  %103 = getelementptr inbounds nuw %struct.XWindowAttributes, ptr %17, i32 0, i32 1
  %104 = load i32, ptr %103, align 4
  %105 = load i32, ptr %13, align 4
  %106 = add nsw i32 %104, %105
  %107 = load ptr, ptr %5, align 8
  %108 = getelementptr inbounds nuw %struct.SDL_VideoData, ptr %107, i32 0, i32 23
  %109 = getelementptr inbounds nuw %struct.SDL_Point, ptr %108, i32 0, i32 1
  store i32 %106, ptr %109, align 4
  %110 = load i32, ptr %18, align 4
  %111 = load ptr, ptr %5, align 8
  %112 = getelementptr inbounds nuw %struct.SDL_VideoData, ptr %111, i32 0, i32 24
  store i32 %110, ptr %112, align 4
  %113 = load ptr, ptr %5, align 8
  %114 = getelementptr inbounds nuw %struct.SDL_VideoData, ptr %113, i32 0, i32 22
  store i8 0, ptr %114, align 8
  store i32 2, ptr %19, align 4
  call void @llvm.lifetime.end.p0(i64 4, ptr %18) #6
  call void @llvm.lifetime.end.p0(i64 136, ptr %17) #6
  br label %116

115:                                              ; preds = %54
  store i32 0, ptr %19, align 4
  br label %116

116:                                              ; preds = %115, %69
  call void @llvm.lifetime.end.p0(i64 4, ptr %16) #6
  call void @llvm.lifetime.end.p0(i64 4, ptr %15) #6
  call void @llvm.lifetime.end.p0(i64 4, ptr %14) #6
  call void @llvm.lifetime.end.p0(i64 4, ptr %13) #6
  call void @llvm.lifetime.end.p0(i64 4, ptr %12) #6
  call void @llvm.lifetime.end.p0(i64 8, ptr %11) #6
  call void @llvm.lifetime.end.p0(i64 8, ptr %10) #6
  %117 = load i32, ptr %19, align 4
  switch i32 %117, label %120 [
    i32 0, label %118
  ]

118:                                              ; preds = %116
  br label %119

119:                                              ; preds = %118, %45
  store i32 0, ptr %19, align 4
  br label %120

120:                                              ; preds = %119, %116
  call void @llvm.lifetime.end.p0(i64 8, ptr %9) #6
  %121 = load i32, ptr %19, align 4
  switch i32 %121, label %148 [
    i32 0, label %122
    i32 2, label %126
  ]

122:                                              ; preds = %120
  br label %123

123:                                              ; preds = %122
  %124 = load i32, ptr %8, align 4
  %125 = add nsw i32 %124, 1
  store i32 %125, ptr %8, align 4
  br label %38, !llvm.loop !8

126:                                              ; preds = %120, %38
  %127 = load ptr, ptr %6, align 8
  call void @SDL_free_REAL(ptr noundef %127)
  br label %128

128:                                              ; preds = %126, %33
  br label %129

129:                                              ; preds = %128, %28
  br label %130

130:                                              ; preds = %129
  br label %131

131:                                              ; preds = %130
  br label %132

132:                                              ; preds = %131
  %133 = load ptr, ptr %5, align 8
  %134 = getelementptr inbounds nuw %struct.SDL_VideoData, ptr %133, i32 0, i32 23
  %135 = getelementptr inbounds nuw %struct.SDL_Point, ptr %134, i32 0, i32 0
  %136 = load i32, ptr %135, align 4
  %137 = sitofp i32 %136 to float
  %138 = load ptr, ptr %3, align 8
  store float %137, ptr %138, align 4
  %139 = load ptr, ptr %5, align 8
  %140 = getelementptr inbounds nuw %struct.SDL_VideoData, ptr %139, i32 0, i32 23
  %141 = getelementptr inbounds nuw %struct.SDL_Point, ptr %140, i32 0, i32 1
  %142 = load i32, ptr %141, align 4
  %143 = sitofp i32 %142 to float
  %144 = load ptr, ptr %4, align 8
  store float %143, ptr %144, align 4
  %145 = load ptr, ptr %5, align 8
  %146 = getelementptr inbounds nuw %struct.SDL_VideoData, ptr %145, i32 0, i32 24
  %147 = load i32, ptr %146, align 4
  store i32 1, ptr %19, align 4
  call void @llvm.lifetime.end.p0(i64 4, ptr %8) #6
  call void @llvm.lifetime.end.p0(i64 8, ptr %7) #6
  call void @llvm.lifetime.end.p0(i64 8, ptr %6) #6
  call void @llvm.lifetime.end.p0(i64 8, ptr %5) #6
  ret i32 %147

148:                                              ; preds = %120
  unreachable
}