; Function Attrs: nounwind uwtable
define internal i32 @X11_GetGlobalMouseState(ptr noundef writeonly captures(none) %0, ptr noundef writeonly captures(none) %1) #0 {
  %3 = alloca i64, align 8
  %4 = alloca i64, align 8
  %5 = alloca i32, align 4
  %6 = alloca i32, align 4
  %7 = alloca i32, align 4
  %8 = alloca i32, align 4
  %9 = alloca i32, align 4
  %10 = alloca %struct.XWindowAttributes, align 8
  %11 = tail call ptr @SDL_GetVideoDevice() #5
  %12 = getelementptr inbounds nuw i8, ptr %11, i64 1656
  %13 = load ptr, ptr %12, align 8
  %14 = tail call ptr @SDL_GetVideoDevice() #5
  %15 = getelementptr inbounds nuw i8, ptr %14, i64 1656
  %16 = load ptr, ptr %15, align 8
  %17 = load ptr, ptr %16, align 8
  %18 = tail call zeroext i1 @X11_Xinput2IsInitialized() #5
  %.phi.trans.insert = getelementptr inbounds nuw i8, ptr %13, i64 1656
  br i1 %18, label %19, label %.thread46

.thread46:                                        ; preds = %2
  store i8 1, ptr %.phi.trans.insert, align 8
  br label %21

19:                                               ; preds = %2
  %.pre = load i8, ptr %.phi.trans.insert, align 8, !range !8
  %20 = trunc nuw i8 %.pre to i1
  br i1 %20, label %21, label %60

21:                                               ; preds = %.thread46, %19
  %22 = getelementptr inbounds nuw i8, ptr %13, i64 1656
  %23 = tail call ptr @SDL_GetDisplays_REAL(ptr noundef null) #5
  %.not = icmp eq ptr %23, null
  br i1 %.not, label %60, label %.preheader

.preheader:                                       ; preds = %21
  %24 = load i32, ptr %23, align 4
  %.not3343 = icmp eq i32 %24, 0
  br i1 %.not3343, label %.loopexit, label %.lr.ph

.lr.ph:                                           ; preds = %.preheader
  %25 = getelementptr inbounds nuw i8, ptr %17, i64 232
  br label %26

26:                                               ; preds = %.lr.ph, %57
  %indvars.iv = phi i64 [ 0, %.lr.ph ], [ %indvars.iv.next, %57 ]
  %27 = phi i32 [ %24, %.lr.ph ], [ %59, %57 ]
  %28 = call ptr @SDL_GetDisplayDriverData(i32 noundef %27) #5
  %.not34 = icmp eq ptr %28, null
  br i1 %.not34, label %57, label %29

29:                                               ; preds = %26
  call void @llvm.lifetime.start.p0(i64 8, ptr nonnull %3) #5
  call void @llvm.lifetime.start.p0(i64 8, ptr nonnull %4) #5
  call void @llvm.lifetime.start.p0(i64 4, ptr nonnull %5) #5
  call void @llvm.lifetime.start.p0(i64 4, ptr nonnull %6) #5
  call void @llvm.lifetime.start.p0(i64 4, ptr nonnull %7) #5
  call void @llvm.lifetime.start.p0(i64 4, ptr nonnull %8) #5
  call void @llvm.lifetime.start.p0(i64 4, ptr nonnull %9) #5
  %30 = load ptr, ptr @X11_XQueryPointer, align 8
  %31 = load ptr, ptr %25, align 8
  %32 = load i32, ptr %28, align 8
  %33 = sext i32 %32 to i64
  %34 = getelementptr inbounds %struct.Screen, ptr %31, i64 %33, i32 2
  %35 = load i64, ptr %34, align 8
  %36 = call i32 %30(ptr noundef %17, i64 noundef %35, ptr noundef nonnull %3, ptr noundef nonnull %4, ptr noundef nonnull %5, ptr noundef nonnull %6, ptr noundef nonnull %7, ptr noundef nonnull %8, ptr noundef nonnull %9) #5
  %.not35 = icmp eq i32 %36, 0
  br i1 %.not35, label %.thread, label %37

.thread:                                          ; preds = %29
  call void @llvm.lifetime.end.p0(i64 4, ptr nonnull %9) #5
  call void @llvm.lifetime.end.p0(i64 4, ptr nonnull %8) #5
  call void @llvm.lifetime.end.p0(i64 4, ptr nonnull %7) #5
  call void @llvm.lifetime.end.p0(i64 4, ptr nonnull %6) #5
  call void @llvm.lifetime.end.p0(i64 4, ptr nonnull %5) #5
  call void @llvm.lifetime.end.p0(i64 8, ptr nonnull %4) #5
  call void @llvm.lifetime.end.p0(i64 8, ptr nonnull %3) #5
  br label %57

37:                                               ; preds = %29
  call void @llvm.lifetime.start.p0(i64 136, ptr nonnull %10) #5
  %38 = load i32, ptr %9, align 4
  %39 = lshr i32 %38, 8
  %40 = and i32 %39, 7
  %41 = call i32 @SDL_GetMouseState_REAL(ptr noundef null, ptr noundef null) #5
  %42 = and i32 %41, 24
  %43 = or disjoint i32 %40, %42
  %44 = load ptr, ptr @X11_XGetWindowAttributes, align 8
  %45 = load i64, ptr %3, align 8
  %46 = call i32 %44(ptr noundef nonnull %17, i64 noundef %45, ptr noundef nonnull %10) #5
  %47 = load i32, ptr %10, align 8
  %48 = load i32, ptr %5, align 4
  %49 = add nsw i32 %48, %47
  %50 = getelementptr inbounds nuw i8, ptr %13, i64 1660
  store i32 %49, ptr %50, align 4
  %51 = getelementptr inbounds nuw i8, ptr %10, i64 4
  %52 = load i32, ptr %51, align 4
  %53 = load i32, ptr %6, align 4
  %54 = add nsw i32 %53, %52
  %55 = getelementptr inbounds nuw i8, ptr %13, i64 1664
  store i32 %54, ptr %55, align 4
  %56 = getelementptr inbounds nuw i8, ptr %13, i64 1668
  store i32 %43, ptr %56, align 4
  store i8 0, ptr %22, align 8
  call void @llvm.lifetime.end.p0(i64 136, ptr nonnull %10) #5
  call void @llvm.lifetime.end.p0(i64 4, ptr nonnull %9) #5
  call void @llvm.lifetime.end.p0(i64 4, ptr nonnull %8) #5
  call void @llvm.lifetime.end.p0(i64 4, ptr nonnull %7) #5
  call void @llvm.lifetime.end.p0(i64 4, ptr nonnull %6) #5
  call void @llvm.lifetime.end.p0(i64 4, ptr nonnull %5) #5
  call void @llvm.lifetime.end.p0(i64 8, ptr nonnull %4) #5
  call void @llvm.lifetime.end.p0(i64 8, ptr nonnull %3) #5
  br label %.loopexit

57:                                               ; preds = %.thread, %26
  %indvars.iv.next = add nuw nsw i64 %indvars.iv, 1
  %58 = getelementptr inbounds nuw i32, ptr %23, i64 %indvars.iv.next
  %59 = load i32, ptr %58, align 4
  %.not33 = icmp eq i32 %59, 0
  br i1 %.not33, label %.loopexit, label %26, !llvm.loop !10

.loopexit:                                        ; preds = %57, %.preheader, %37
  call void @SDL_free_REAL(ptr noundef nonnull %23) #5
  br label %60

60:                                               ; preds = %19, %.loopexit, %21
  %61 = getelementptr inbounds nuw i8, ptr %13, i64 1660
  %62 = load i32, ptr %61, align 4
  %63 = sitofp i32 %62 to float
  store float %63, ptr %0, align 4
  %64 = getelementptr inbounds nuw i8, ptr %13, i64 1664
  %65 = load i32, ptr %64, align 4
  %66 = sitofp i32 %65 to float
  store float %66, ptr %1, align 4
  %67 = getelementptr inbounds nuw i8, ptr %13, i64 1668
  %68 = load i32, ptr %67, align 4
  ret i32 %68
}